Certificate:
    Data:
        Version: 3 (0x2)
        Serial Number: 3 (0x3)
    Signature Algorithm: sha256WithRSAEncryption
        Issuer: CN=inter1A1-ca
        Validity
            Not Before: Sep 16 01:49:46 2022 GMT
            Not After : Sep  8 01:49:46 2052 GMT
        Subject: CN=foo.example.org
        Subject Public Key Info:
            Public Key Algorithm: rsaEncryption
                Public-Key: (3072 bit)
                Modulus:
                    00:b9:5b:73:f6:22:20:50:12:73:fd:05:c2:83:75:
                    23:b6:af:82:dc:62:69:01:01:82:de:a5:3e:ce:0c:
                    b4:4c:0f:71:d9:e6:6d:9b:0b:32:0c:3f:f5:82:47:
                    83:79:c5:0d:ea:6d:a0:df:89:e1:aa:e5:aa:b5:87:
                    c7:19:91:8f:77:98:cc:37:91:b9:2c:3d:75:d7:17:
                    aa:31:b1:a7:be:d6:6e:a8:31:b4:97:73:22:30:6f:
                    a4:26:63:b8:5a:5d:45:a5:72:07:f1:9d:8d:18:01:
                    fb:1e:e2:9d:41:4d:18:8e:01:50:7c:34:44:d8:5f:
                    3d:66:9f:b1:5f:23:13:bf:f5:24:41:15:49:1c:0e:
                    60:c0:f9:0d:45:43:d3:3e:7b:6b:56:40:c0:3b:f2:
                    72:e8:73:fa:c8:16:82:54:63:28:fb:54:b6:87:2e:
                    d3:a1:d5:bd:b0:0c:aa:c1:e4:fb:fb:08:af:c0:98:
                    3e:38:19:be:6f:13:8f:ec:a7:1a:c0:93:7b:84:91:
                    4b:17:11:7d:65:18:90:75:ad:a7:61:7a:46:a1:4c:
                    c8:65:bc:a3:30:55:6f:c9:2f:81:94:eb:43:33:2d:
                    6e:64:13:90:fc:c0:11:44:68:01:07:bb:f8:92:d3:
                    b3:78:e1:93:7c:63:db:5b:22:ee:83:43:3e:e2:19:
                    b7:5f:27:35:f4:44:3e:78:68:82:76:29:55:0d:dd:
                    50:30:68:27:e6:f5:d9:6f:6a:71:bd:f8:6b:8c:e7:
                    8f:bd:09:7c:ab:9e:c4:d9:c9:fa:da:18:f1:56:0d:
                    9c:cb:d9:8d:d6:c1:b7:78:a9:eb:75:b5:54:5c:35:
                    8f:f7:79:e9:71:cf:15:ce:f1:34:5d:ed:bf:00:20:
                    07:93:a9:ff:8b:dc:da:40:06:e5:ca:11:02:38:d8:
                    fd:7a:ef:1c:e4:53:19:43:87:9e:c2:cf:12:52:17:
                    c8:37:2b:9e:8d:5b:35:5c:07:3a:c8:ee:c0:f4:46:
                    33:6c:34:86:ef:1e:4d:c7:1a:75
                Exponent: 65537 (0x10001)
        X509v3 extensions:
            X509v3 Basic Constraints: 
                CA:FALSE
            Netscape Cert Type: 
                SSL Client, SSL Server
            X509v3 Key Usage: critical
                Digital Signature, Non Repudiation, Key Encipherment
            Netscape Comment: 
                OpenSSL Generated Certificate
            X509v3 Subject Key Identifier: 
                17:04:90:14:C6:C8:67:F9:06:5A:FE:CB:0D:35:9C:B9:AB:0F:FC:0F
            X509v3 Authority Key Identifier: 
                keyid:F6:F7:5B:F5:C3:14:31:64:77:3C:40:12:13:54:AF:8D:7A:26:73:40
                DirName:/CN=inter1A-ca
                serial:01

            X509v3 Subject Alternative Name: 
                DNS:foo.example.org, URI:https://foo.example.org/sp
    Signature Algorithm: sha256WithRSAEncryption
         90:1c:82:3f:c4:0a:5d:e6:2a:76:b2:ec:26:a1:37:1f:62:8d:
         00:93:c3:f6:08:39:09:5e:64:60:51:75:cb:9b:c6:34:2f:44:
         ea:69:5f:c2:61:ce:f6:59:4d:cd:97:e6:d6:c7:87:25:e7:e3:
         11:cc:01:0d:9d:73:ec:0a:12:bb:69:f1:b0:5a:b7:12:06:59:
         2c:76:44:4c:8b:21:7d:29:93:92:e6:50:a8:69:38:d9:46:93:
         6e:5f:3a:7d:6b:08:3f:72:bf:9c:c7:9f:bd:60:2a:ca:a4:95:
         d3:cf:fe:11:11:4c:71:5a:b0:34:da:35:32:30:03:c8:8f:2a:
         67:7a:21:37:ac:44:62:f2:fe:e7:c8:cc:02:b0:83:14:3f:5f:
         a4:80:b7:b3:bb:d0:a2:08:f4:2b:59:ec:1e:24:f6:3b:c1:f4:
         89:f2:cf:a4:ec:26:fb:e5:1f:35:db:5b:1a:5a:a4:a4:87:cb:
         d2:1e:a5:52:0f:0c:8b:5f:b9:95:03:6f:86:e7:a3:29:68:b4:
         29:95:71:8f:d0:92:cd:66:fa:9a:2a:29:53:78:00:6e:a4:32:
         58:83:7c:9f:b3:7b:fc:16:ce:73:85:6d:54:d7:2e:49:ca:f1:
         fc:86:52:87:68:1f:3d:3a:00:b7:cf:81:38:3a:f6:72:ab:6f:
         ac:15:16:48:ce:5b:61:f9:46:83:bf:7b:59:44:cc:a2:7c:5a:
         75:b7:e1:00:45:b4:bc:0b:cb:8b:29:e8:05:03:3a:c1:ea:97:
         6f:02:73:59:04:a8:a6:ab:6b:75:87:d7:ae:d1:d5:cd:79:28:
         a5:97:3d:55:f3:54:55:08:6b:ee:42:17:d8:28:5e:b3:38:52:
         64:a0:c7:93:ea:6d:aa:34:0d:f0:3a:da:47:54:dd:09:9d:78:
         6c:25:c5:f7:22:dc:03:9f:0b:80:50:02:5d:26:af:49:6b:5e:
         99:fe:24:44:a7:f4:b1:6c:5d:c5:4b:bd:e3:86:03:ea:dc:c3:
         38:98:8d:ab:47:70
-----BEGIN CERTIFICATE-----
MIIEozCCAwugAwIBAgIBAzANBgkqhkiG9w0BAQsFADAWMRQwEgYDVQQDEwtpbnRl
cjFBMS1jYTAgFw0yMjA5MTYwMTQ5NDZaGA8yMDUyMDkwODAxNDk0NlowGjEYMBYG
A1UEAxMPZm9vLmV4YW1wbGUub3JnMIIBojANBgkqhkiG9w0BAQEFAAOCAY8AMIIB
igKCAYEAuVtz9iIgUBJz/QXCg3Ujtq+C3GJpAQGC3qU+zgy0TA9x2eZtmwsyDD/1
gkeDecUN6m2g34nhquWqtYfHGZGPd5jMN5G5LD111xeqMbGnvtZuqDG0l3MiMG+k
JmO4Wl1FpXIH8Z2NGAH7HuKdQU0YjgFQfDRE2F89Zp+xXyMTv/UkQRVJHA5gwPkN
RUPTPntrVkDAO/Jy6HP6yBaCVGMo+1S2hy7TodW9sAyqweT7+wivwJg+OBm+bxOP
7KcawJN7hJFLFxF9ZRiQda2nYXpGoUzIZbyjMFVvyS+BlOtDMy1uZBOQ/MARRGgB
B7v4ktOzeOGTfGPbWyLug0M+4hm3Xyc19EQ+eGiCdilVDd1QMGgn5vXZb2pxvfhr
jOePvQl8q57E2cn62hjxVg2cy9mN1sG3eKnrdbVUXDWP93npcc8VzvE0Xe2/ACAH
k6n/i9zaQAblyhECONj9eu8c5FMZQ4eews8SUhfINyuejVs1XAc6yO7A9EYzbDSG
7x5Nxxp1AgMBAAGjgfUwgfIwCQYDVR0TBAIwADARBglghkgBhvhCAQEEBAMCBsAw
DgYDVR0PAQH/BAQDAgXgMCwGCWCGSAGG+EIBDQQfFh1PcGVuU1NMIEdlbmVyYXRl
ZCBDZXJ0aWZpY2F0ZTAdBgNVHQ4EFgQUFwSQFMbIZ/kGWv7LDTWcuasP/A8wPQYD
VR0jBDYwNIAU9vdb9cMUMWR3PEASE1SvjXomc0ChGaQXMBUxEzARBgNVBAMTCmlu
dGVyMUEtY2GCAQEwNgYDVR0RBC8wLYIPZm9vLmV4YW1wbGUub3JnhhpodHRwczov
L2Zvby5leGFtcGxlLm9yZy9zcDANBgkqhkiG9w0BAQsFAAOCAYEAkByCP8QKXeYq
drLsJqE3H2KNAJPD9gg5CV5kYFF1y5vGNC9E6mlfwmHO9llNzZfm1seHJefjEcwB
DZ1z7AoSu2nxsFq3EgZZLHZETIshfSmTkuZQqGk42UaTbl86fWsIP3K/nMefvWAq
yqSV08/+ERFMcVqwNNo1MjADyI8qZ3ohN6xEYvL+58jMArCDFD9fpIC3s7vQogj0
K1nsHiT2O8H0ifLPpOwm++UfNdtbGlqkpIfL0h6lUg8Mi1+5lQNvhuejKWi0KZVx
j9CSzWb6miopU3gAbqQyWIN8n7N7/BbOc4VtVNcuScrx/IZSh2gfPToAt8+BODr2
cqtvrBUWSM5bYflGg797WUTMonxadbfhAEW0vAvLiynoBQM6weqXbwJzWQSopqtr
dYfXrtHVzXkopZc9VfNUVQhr7kIX2CheszhSZKDHk+ptqjQN8DraR1TdCZ14bCXF
9yLcA58LgFACXSavSWtemf4kRKf0sWxdxUu944YD6tzDOJiNq0dw
-----END CERTIFICATE-----
