Certificate:
    Data:
        Version: 3 (0x2)
        Serial Number: 2 (0x2)
    Signature Algorithm: sha256WithRSAEncryption
        Issuer: CN=root1-ca
        Validity
            Not Before: Sep 16 01:49:23 2022 GMT
            Not After : Sep  8 01:49:23 2052 GMT
        Subject: CN=inter1B-ca
        Subject Public Key Info:
            Public Key Algorithm: rsaEncryption
                Public-Key: (3072 bit)
                Modulus:
                    00:c3:0b:19:57:5d:b9:66:11:ff:d6:17:ac:44:3b:
                    02:4b:7d:8a:b7:7c:e4:36:e4:14:c5:13:25:45:16:
                    e2:23:19:b1:e0:85:4d:4d:78:0c:9a:11:fa:05:77:
                    e5:cb:6d:d6:fa:36:2a:2d:64:c1:5f:57:fc:04:64:
                    99:25:6c:9e:28:f2:a2:c4:f1:e1:0c:c4:5c:db:41:
                    49:fc:27:7d:96:06:c6:b6:25:f5:2e:4a:59:0d:43:
                    85:2f:19:a4:33:a8:27:4c:44:24:a0:55:2c:0d:dd:
                    84:f7:dc:d2:ea:83:d8:89:45:b4:25:dc:86:50:f6:
                    19:8d:e4:b4:77:36:c8:4a:7c:b4:9d:cc:f4:e1:ed:
                    90:d5:16:f7:4b:ee:80:9d:89:98:a9:9d:5e:b0:bb:
                    a3:dc:4a:07:63:6a:46:ec:12:ac:bd:f5:6a:f9:b9:
                    03:fe:f5:f4:eb:82:72:34:4a:23:a5:7a:aa:b2:fc:
                    da:a9:27:b7:5d:9f:9c:84:d9:ec:84:38:58:1c:d5:
                    74:67:81:6c:8d:69:96:0d:c4:e0:a8:94:27:6f:61:
                    78:99:5b:8f:40:46:c3:f1:95:4c:15:ff:7d:48:da:
                    d0:c3:fe:a4:a7:c1:bd:7c:3f:0a:57:0b:bf:01:91:
                    3c:2e:90:0d:d3:dd:ad:bd:7c:1b:09:b6:14:cc:f6:
                    b9:d8:d0:1b:92:63:aa:0c:4b:03:2d:3c:b2:d1:c1:
                    65:5a:65:75:76:ba:51:24:d8:ba:d1:f4:16:5c:39:
                    03:0b:bd:ea:16:76:b6:18:b5:9f:c2:56:6a:5e:06:
                    d6:eb:ed:9c:32:b7:b7:78:ec:33:5b:e8:17:ba:1d:
                    c3:da:f2:66:be:0f:13:37:4a:5e:ed:e3:a0:db:44:
                    e0:a2:b2:bd:32:19:72:84:61:fb:f3:71:31:7f:53:
                    3c:41:30:af:f5:30:c6:cd:48:1e:50:8d:c1:a1:7b:
                    bd:02:48:e7:74:51:02:8e:6f:a3:fc:7a:7a:3c:17:
                    53:b9:c1:b5:af:3e:38:e3:e7:11
                Exponent: 65537 (0x10001)
        X509v3 extensions:
            X509v3 Basic Constraints: critical
                CA:TRUE
            Netscape Cert Type: 
                SSL CA, S/MIME CA, Object Signing CA
            X509v3 Key Usage: critical
                Digital Signature, Certificate Sign, CRL Sign
            X509v3 Subject Key Identifier: 
                CB:67:9B:94:5F:DE:C7:6A:B5:0D:9D:F2:DF:EC:15:C8:B4:AC:A7:06
            X509v3 Authority Key Identifier: 
                keyid:26:1C:68:7A:E2:B2:5A:B7:2C:F1:8F:8F:29:7C:77:54:61:89:04:68
                DirName:/CN=root1-ca
                serial:E7:83:BC:F1:18:AC:C8:B1

    Signature Algorithm: sha256WithRSAEncryption
         bd:6a:01:66:fc:f5:36:a0:9c:c7:15:b3:16:2b:e7:5a:f9:c9:
         a2:1c:85:fb:72:f2:05:6e:ce:70:6b:9c:4c:78:d8:bc:96:06:
         3d:9d:2d:a9:23:d3:16:ee:00:27:dc:a9:3d:9c:e7:33:3d:fb:
         e0:d4:72:65:e5:ec:b2:fc:75:a8:1c:76:9c:e9:66:04:30:d0:
         0d:b4:b1:6e:b0:e5:9e:a7:ee:80:4f:0a:2f:21:be:aa:5d:b6:
         f3:4a:f0:24:41:aa:6b:08:0a:ce:f4:31:2f:27:0e:eb:2e:d1:
         1f:5d:19:21:8f:28:6c:37:a1:6e:06:1e:1c:44:3f:7d:09:23:
         77:72:ff:bd:39:c7:20:88:69:a4:08:92:98:9e:cd:9a:78:f9:
         78:84:0a:7e:64:2b:50:0b:e7:ae:0a:f2:70:f0:0b:56:01:93:
         69:65:46:3d:80:55:e5:53:d0:65:e8:3a:02:9a:6e:3a:40:c6:
         3a:0b:ca:f9:4f:1b:b2:21:e8:9a:2b:c6:86:97:01:6c:99:84:
         09:b3:16:b4:57:20:c0:a5:bb:21:1d:89:25:87:79:d9:ab:c2:
         e6:e0:15:f9:19:b3:0d:c4:24:ff:b8:9c:04:c4:25:4c:be:e1:
         93:e0:49:6d:50:a2:ce:da:52:ac:7a:cc:a5:d4:55:40:77:5d:
         72:92:5e:8b:15:e4:61:c5:ee:bc:b7:cd:54:2f:75:16:ea:81:
         91:3c:a5:de:f6:58:84:ed:87:ca:74:b1:7e:79:2f:a4:fa:b5:
         9c:d3:f7:07:5d:d7:45:cd:f4:fc:29:0c:dc:7e:e5:b2:d0:23:
         bc:a7:fd:41:fa:01:7d:e1:55:6f:93:fc:6f:84:66:97:e6:10:
         5b:0b:29:4a:26:d2:a5:c4:4c:35:1d:6c:65:54:17:96:6d:1b:
         2f:af:63:16:15:9c:30:4f:90:2f:04:49:31:eb:aa:9a:89:4f:
         9f:b4:2f:89:cf:f7:07:15:03:04:8d:be:f6:9e:91:9b:80:5e:
         7c:d1:05:b5:66:f6
-----BEGIN CERTIFICATE-----
MIIEQTCCAqmgAwIBAgIBAjANBgkqhkiG9w0BAQsFADATMREwDwYDVQQDEwhyb290
MS1jYTAgFw0yMjA5MTYwMTQ5MjNaGA8yMDUyMDkwODAxNDkyM1owFTETMBEGA1UE
AxMKaW50ZXIxQi1jYTCCAaIwDQYJKoZIhvcNAQEBBQADggGPADCCAYoCggGBAMML
GVdduWYR/9YXrEQ7Akt9ird85DbkFMUTJUUW4iMZseCFTU14DJoR+gV35ctt1vo2
Ki1kwV9X/ARkmSVsnijyosTx4QzEXNtBSfwnfZYGxrYl9S5KWQ1DhS8ZpDOoJ0xE
JKBVLA3dhPfc0uqD2IlFtCXchlD2GY3ktHc2yEp8tJ3M9OHtkNUW90vugJ2JmKmd
XrC7o9xKB2NqRuwSrL31avm5A/719OuCcjRKI6V6qrL82qknt12fnITZ7IQ4WBzV
dGeBbI1plg3E4KiUJ29heJlbj0BGw/GVTBX/fUja0MP+pKfBvXw/ClcLvwGRPC6Q
DdPdrb18Gwm2FMz2udjQG5JjqgxLAy08stHBZVpldXa6USTYutH0Flw5Awu96hZ2
thi1n8JWal4G1uvtnDK3t3jsM1voF7odw9ryZr4PEzdKXu3joNtE4KKyvTIZcoRh
+/NxMX9TPEEwr/Uwxs1IHlCNwaF7vQJI53RRAo5vo/x6ejwXU7nBta8+OOPnEQID
AQABo4GbMIGYMA8GA1UdEwEB/wQFMAMBAf8wEQYJYIZIAYb4QgEBBAQDAgAHMA4G
A1UdDwEB/wQEAwIBhjAdBgNVHQ4EFgQUy2eblF/ex2q1DZ3y3+wVyLSspwYwQwYD
VR0jBDwwOoAUJhxoeuKyWrcs8Y+PKXx3VGGJBGihF6QVMBMxETAPBgNVBAMTCHJv
b3QxLWNhggkA54O88RisyLEwDQYJKoZIhvcNAQELBQADggGBAL1qAWb89TagnMcV
sxYr51r5yaIchfty8gVuznBrnEx42LyWBj2dLakj0xbuACfcqT2c5zM9++DUcmXl
7LL8dagcdpzpZgQw0A20sW6w5Z6n7oBPCi8hvqpdtvNK8CRBqmsICs70MS8nDusu
0R9dGSGPKGw3oW4GHhxEP30JI3dy/705xyCIaaQIkpiezZp4+XiECn5kK1AL564K
8nDwC1YBk2llRj2AVeVT0GXoOgKabjpAxjoLyvlPG7Ih6JorxoaXAWyZhAmzFrRX
IMCluyEdiSWHedmrwubgFfkZsw3EJP+4nATEJUy+4ZPgSW1Qos7aUqx6zKXUVUB3
XXKSXosV5GHF7ry3zVQvdRbqgZE8pd72WITth8p0sX55L6T6tZzT9wdd10XN9Pwp
DNx+5bLQI7yn/UH6AX3hVW+T/G+EZpfmEFsLKUom0qXETDUdbGVUF5ZtGy+vYxYV
nDBPkC8ESTHrqpqJT5+0L4nP9wcVAwSNvvaekZuAXnzRBbVm9g==
-----END CERTIFICATE-----
