Certificate:
    Data:
        Version: 3 (0x2)
        Serial Number: 2 (0x2)
    Signature Algorithm: sha256WithRSAEncryption
        Issuer: CN=root2-ca
        Validity
            Not Before: Sep 16 01:49:28 2022 GMT
            Not After : Sep  8 01:49:28 2052 GMT
        Subject: CN=inter2B-ca
        Subject Public Key Info:
            Public Key Algorithm: rsaEncryption
                Public-Key: (3072 bit)
                Modulus:
                    00:e0:fc:1a:56:19:26:68:81:46:3a:e9:3c:14:3d:
                    5f:ef:96:9e:34:81:33:62:bc:7b:f9:0f:d0:ba:04:
                    f0:ee:26:05:20:44:2b:16:eb:dc:1d:bc:d9:b0:ce:
                    e3:38:d4:33:87:bd:2f:73:c8:ea:ab:2c:fd:b5:2a:
                    50:bd:8d:30:d0:9a:e4:be:6f:05:4a:2b:3a:5b:19:
                    41:9c:e6:3e:e8:2e:2f:56:ea:6c:00:33:a6:07:7a:
                    e9:c8:92:fc:ef:26:2b:4f:43:16:32:84:e7:ab:b8:
                    2f:91:cc:fa:d3:4b:a8:29:d8:32:b5:7f:7c:ad:9d:
                    e0:a3:9f:50:55:e1:93:e8:57:35:f4:34:02:e7:6f:
                    4f:83:24:4c:53:57:69:58:5d:96:19:29:55:df:24:
                    cf:51:1f:55:82:70:f8:42:a1:14:87:02:72:86:42:
                    05:b3:0c:67:fe:8a:1a:c8:9d:ad:b1:14:c1:29:e4:
                    96:dd:8c:1b:06:a2:7a:38:15:5d:33:42:04:2e:45:
                    33:f0:29:63:73:b6:d8:74:01:9d:ae:22:1c:33:7c:
                    00:da:e0:6d:5b:04:7a:c8:43:e8:ec:b4:49:3d:a0:
                    29:78:72:a3:c3:bf:43:54:2e:27:8b:47:3b:00:d2:
                    06:f9:eb:07:d5:e3:69:c0:b4:0e:3e:31:d1:f6:e1:
                    8c:b0:2b:c3:59:73:a5:3f:5c:25:1a:08:40:54:52:
                    b3:51:c2:fd:0b:a9:9a:43:3e:37:bd:cb:44:99:e6:
                    1e:7d:37:98:44:85:28:44:2a:f9:ca:65:28:a6:0d:
                    81:12:99:ec:5e:08:98:e1:68:0c:be:62:26:78:cb:
                    05:22:b6:0a:97:14:8e:53:a9:5a:64:9f:8f:b2:c9:
                    27:bb:8b:4c:95:c7:1a:8e:b1:1c:b9:8a:2b:37:b5:
                    1d:e3:77:12:23:f3:7f:5b:74:e4:85:68:7a:1c:ab:
                    1e:51:d2:d4:e5:1b:aa:10:df:4d:5a:4f:ac:30:94:
                    f0:6e:6d:00:25:6a:28:c3:1c:c9
                Exponent: 65537 (0x10001)
        X509v3 extensions:
            X509v3 Basic Constraints: critical
                CA:TRUE
            Netscape Cert Type: 
                SSL CA, S/MIME CA, Object Signing CA
            X509v3 Key Usage: critical
                Digital Signature, Certificate Sign, CRL Sign
            X509v3 Subject Key Identifier: 
                C2:F3:4E:88:CD:94:C1:F1:8F:F9:5A:F8:76:74:0E:EE:1C:5B:01:02
            X509v3 Authority Key Identifier: 
                keyid:B5:1F:DF:73:0B:E0:FA:8E:81:F2:9F:9E:A5:62:D0:74:63:1F:CE:6E
                DirName:/CN=root2-ca
                serial:A2:EB:78:04:17:F8:8E:6A

    Signature Algorithm: sha256WithRSAEncryption
         1e:3a:53:c8:f6:45:52:9e:55:45:09:9a:1c:72:2e:c8:b6:3a:
         be:18:9a:30:0f:23:b2:94:f4:b3:dd:42:56:ae:2c:d5:7d:00:
         51:72:1d:4c:28:94:5e:4e:09:b4:59:e0:bf:94:e1:76:d3:4f:
         2e:c1:c2:2a:3f:26:57:1a:3e:ea:0f:b0:8d:90:21:f4:6f:e3:
         18:ee:63:85:6c:3f:d1:0d:c7:4a:dd:26:83:d0:8b:79:6b:2a:
         82:c2:9b:57:0a:4f:a4:a0:de:17:7e:8b:65:11:7a:fa:50:42:
         f4:93:1d:d4:15:f8:db:5c:aa:09:c2:33:72:42:5e:a0:05:38:
         c8:fa:e1:01:f5:36:a3:2d:af:6c:c2:82:c8:82:72:c2:0c:8b:
         fa:20:e3:f1:bd:6c:ce:31:a6:38:fb:05:90:fb:2f:6c:5d:ed:
         c9:4c:89:a6:e6:86:c6:a4:b6:54:5d:25:9e:46:ce:fb:7b:99:
         cf:e0:f0:fa:67:00:cd:69:78:87:65:ee:e5:3c:62:86:da:2d:
         a4:19:08:69:2c:1f:51:e8:28:55:d4:8f:23:e3:55:b3:7d:e6:
         d0:87:ec:28:77:cf:cd:70:db:05:b4:07:2b:77:74:74:c5:05:
         c0:c9:23:d8:9a:76:d0:dc:7e:c0:a8:72:07:da:c3:06:91:9e:
         e4:3a:be:79:a5:40:64:15:f6:6b:f6:90:45:fb:c0:96:9a:6a:
         0f:7e:a2:98:35:74:63:f4:7f:dd:8a:d7:a4:cb:ff:58:15:13:
         c2:bd:ef:b8:03:97:08:78:af:94:a9:08:0b:66:6f:dd:78:97:
         7a:22:78:79:88:e9:a1:39:a6:98:c2:01:41:78:cd:7c:24:6b:
         7b:94:8f:3e:aa:5f:d8:56:d5:d7:9e:67:62:12:a7:01:dc:4b:
         9b:d1:17:12:e4:89:1e:d9:04:fd:e2:3c:cd:4a:6e:7d:85:8e:
         58:e1:41:f6:7d:41:68:aa:ef:7b:b9:5f:e9:f5:45:fd:d6:a1:
         eb:56:e9:14:82:a4
-----BEGIN CERTIFICATE-----
MIIEQTCCAqmgAwIBAgIBAjANBgkqhkiG9w0BAQsFADATMREwDwYDVQQDEwhyb290
Mi1jYTAgFw0yMjA5MTYwMTQ5MjhaGA8yMDUyMDkwODAxNDkyOFowFTETMBEGA1UE
AxMKaW50ZXIyQi1jYTCCAaIwDQYJKoZIhvcNAQEBBQADggGPADCCAYoCggGBAOD8
GlYZJmiBRjrpPBQ9X++WnjSBM2K8e/kP0LoE8O4mBSBEKxbr3B282bDO4zjUM4e9
L3PI6qss/bUqUL2NMNCa5L5vBUorOlsZQZzmPuguL1bqbAAzpgd66ciS/O8mK09D
FjKE56u4L5HM+tNLqCnYMrV/fK2d4KOfUFXhk+hXNfQ0AudvT4MkTFNXaVhdlhkp
Vd8kz1EfVYJw+EKhFIcCcoZCBbMMZ/6KGsidrbEUwSnklt2MGwaiejgVXTNCBC5F
M/ApY3O22HQBna4iHDN8ANrgbVsEeshD6Oy0ST2gKXhyo8O/Q1QuJ4tHOwDSBvnr
B9XjacC0Dj4x0fbhjLArw1lzpT9cJRoIQFRSs1HC/QupmkM+N73LRJnmHn03mESF
KEQq+cplKKYNgRKZ7F4ImOFoDL5iJnjLBSK2CpcUjlOpWmSfj7LJJ7uLTJXHGo6x
HLmKKze1HeN3EiPzf1t05IVoehyrHlHS1OUbqhDfTVpPrDCU8G5tACVqKMMcyQID
AQABo4GbMIGYMA8GA1UdEwEB/wQFMAMBAf8wEQYJYIZIAYb4QgEBBAQDAgAHMA4G
A1UdDwEB/wQEAwIBhjAdBgNVHQ4EFgQUwvNOiM2UwfGP+Vr4dnQO7hxbAQIwQwYD
VR0jBDwwOoAUtR/fcwvg+o6B8p+epWLQdGMfzm6hF6QVMBMxETAPBgNVBAMTCHJv
b3QyLWNhggkAout4BBf4jmowDQYJKoZIhvcNAQELBQADggGBAB46U8j2RVKeVUUJ
mhxyLsi2Or4YmjAPI7KU9LPdQlauLNV9AFFyHUwolF5OCbRZ4L+U4XbTTy7Bwio/
JlcaPuoPsI2QIfRv4xjuY4VsP9ENx0rdJoPQi3lrKoLCm1cKT6Sg3hd+i2URevpQ
QvSTHdQV+NtcqgnCM3JCXqAFOMj64QH1NqMtr2zCgsiCcsIMi/og4/G9bM4xpjj7
BZD7L2xd7clMiabmhsaktlRdJZ5Gzvt7mc/g8PpnAM1peIdl7uU8YobaLaQZCGks
H1HoKFXUjyPjVbN95tCH7Ch3z81w2wW0Byt3dHTFBcDJI9iadtDcfsCocgfawwaR
nuQ6vnmlQGQV9mv2kEX7wJaaag9+opg1dGP0f92K16TL/1gVE8K977gDlwh4r5Sp
CAtmb914l3oieHmI6aE5ppjCAUF4zXwka3uUjz6qX9hW1deeZ2ISpwHcS5vRFxLk
iR7ZBP3iPM1Kbn2FjljhQfZ9QWiq73u5X+n1Rf3WoetW6RSCpA==
-----END CERTIFICATE-----
