Certificate:
    Data:
        Version: 3 (0x2)
        Serial Number: 1 (0x1)
    Signature Algorithm: sha256WithRSAEncryption
        Issuer: CN=inter1A1-ca
        Validity
            Not Before: Sep 16 01:49:40 2022 GMT
            Not After : Sep  8 01:49:40 2052 GMT
        Subject: CN=foo.example.org
        Subject Public Key Info:
            Public Key Algorithm: rsaEncryption
                Public-Key: (3072 bit)
                Modulus:
                    00:9d:89:93:64:9d:63:9c:04:9d:b4:ee:47:ea:cc:
                    0f:38:68:ec:04:dd:5a:b5:e1:8f:f3:15:59:ef:54:
                    ff:fa:b1:67:d9:8b:e0:03:67:c5:10:ef:7d:08:d1:
                    8c:01:02:fa:af:f9:b3:14:23:66:1e:73:48:01:39:
                    72:cc:89:0f:c6:1d:01:04:f4:ca:90:37:d1:e6:f6:
                    72:4f:25:1e:22:8a:ef:b1:c9:1c:fa:72:05:cb:48:
                    91:c9:60:80:97:6d:02:b1:56:1b:7a:6e:fa:28:97:
                    9c:7c:f1:28:8c:25:ff:38:44:27:f3:51:e6:3d:d4:
                    fb:28:0e:47:77:01:56:9c:45:17:a3:73:ca:5c:b2:
                    b8:78:ab:62:80:ec:ef:34:3f:70:91:00:44:12:74:
                    26:21:a5:0a:ce:a0:f2:40:f9:c6:b6:e8:9f:d6:85:
                    16:cf:42:47:da:91:57:21:6d:69:63:2f:22:af:d0:
                    d1:3d:e8:c7:05:d6:70:93:11:7a:3f:6b:7c:4f:3e:
                    d2:5f:ab:bc:d0:d9:88:f5:f8:18:0f:58:e3:22:a7:
                    62:4c:27:1d:e5:d7:bb:db:ad:d9:4a:1c:6a:26:a6:
                    97:d6:d2:33:3e:0f:e5:40:aa:3b:4c:cb:90:aa:13:
                    f7:5d:8b:69:c4:72:38:7d:fa:dd:c0:61:5c:f4:49:
                    13:44:1c:df:6b:67:ba:9b:bb:ab:07:53:dc:46:ea:
                    fd:14:f9:b0:ee:00:94:d1:bf:6b:47:9c:94:9f:67:
                    8a:7b:b1:f5:2b:04:da:92:67:56:b4:e4:5b:21:a8:
                    ea:48:55:64:68:13:62:f2:be:4b:f0:4c:a2:c6:bf:
                    1e:46:cb:cb:6e:8f:50:d0:c1:74:7f:61:76:6e:c3:
                    e0:13:e4:ad:26:59:ba:e1:ba:44:ac:8d:75:43:bf:
                    da:e3:bb:7c:3a:53:b2:2a:f7:ed:fa:28:9b:64:bf:
                    56:db:60:fa:d1:5e:bd:60:5d:5f:6f:6f:fa:8c:27:
                    3d:37:9e:c9:85:73:10:9a:89:f3
                Exponent: 65537 (0x10001)
        X509v3 extensions:
            X509v3 Basic Constraints: 
                CA:FALSE
            Netscape Cert Type: 
                SSL Client, SSL Server
            X509v3 Key Usage: critical
                Digital Signature, Non Repudiation, Key Encipherment
            Netscape Comment: 
                OpenSSL Generated Certificate
            X509v3 Subject Key Identifier: 
                75:84:69:DD:49:6B:63:EE:D2:6C:CB:3B:DC:D3:55:D9:10:2B:A7:80
            X509v3 Authority Key Identifier: 
                keyid:F6:F7:5B:F5:C3:14:31:64:77:3C:40:12:13:54:AF:8D:7A:26:73:40
                DirName:/CN=inter1A-ca
                serial:01

            X509v3 Subject Alternative Name: 
                DNS:foo.example.org, URI:https://foo.example.org/sp
    Signature Algorithm: sha256WithRSAEncryption
         24:e9:fc:69:69:80:43:4f:6b:83:e4:52:d3:db:25:d8:82:29:
         ef:1d:bd:d8:94:69:39:1c:3b:45:18:e9:e5:47:61:35:57:28:
         d7:3d:a2:b0:e6:22:cf:10:77:82:70:82:7b:b6:a3:69:a8:37:
         b8:34:bc:e2:7e:2f:9b:b9:33:66:61:c6:61:cb:7c:ba:3a:cc:
         88:e4:10:cb:d0:4d:8c:c7:26:de:52:6c:41:4f:57:8d:03:e8:
         ae:68:f2:ce:85:e9:e0:ea:f2:8a:be:b3:22:da:7a:b3:48:fc:
         a9:be:e9:a9:78:f5:8d:69:d1:b6:9d:5f:2c:3d:bd:9f:c4:66:
         30:04:b8:84:16:4f:fc:2e:2e:10:8b:0b:11:23:86:76:fb:d0:
         d7:cb:8b:0a:d8:40:8c:bd:f6:33:e5:bd:d9:ba:66:b8:9d:f3:
         d0:7c:21:3d:e8:87:b7:65:8a:6a:48:07:6c:94:56:ae:c1:ec:
         a0:5d:8b:37:19:f8:6b:46:9d:7a:9a:de:4a:76:25:30:3a:c3:
         38:09:65:1e:33:63:c3:e8:e3:0b:f0:b8:20:06:d5:d1:2e:04:
         85:95:98:6c:79:eb:ea:04:a2:21:94:32:ca:b1:34:9b:1c:d5:
         54:f3:ac:52:1c:4e:51:01:62:88:e3:6d:4a:8a:80:7c:88:26:
         07:8b:2c:84:3e:51:32:9c:1d:0e:d7:1b:77:74:5d:38:b4:24:
         41:d0:dc:8a:82:3a:c1:09:0b:46:b5:dc:e2:08:aa:6a:7d:63:
         17:05:65:aa:5e:2e:5f:9e:25:13:94:54:5b:d7:39:a7:2f:4f:
         1b:01:d3:23:62:bc:cd:27:72:cf:5e:4b:be:93:20:e8:49:e4:
         cc:75:60:d4:72:12:98:95:3b:e0:0e:74:1d:43:96:e7:62:69:
         b6:bd:cf:60:b4:a3:d7:45:20:46:9b:21:4d:d9:ca:9e:39:90:
         4e:fa:a3:b1:9b:5f:cc:ae:a4:98:ae:de:84:79:95:fa:4f:da:
         18:70:35:5f:3c:44
-----BEGIN CERTIFICATE-----
MIIEozCCAwugAwIBAgIBATANBgkqhkiG9w0BAQsFADAWMRQwEgYDVQQDEwtpbnRl
cjFBMS1jYTAgFw0yMjA5MTYwMTQ5NDBaGA8yMDUyMDkwODAxNDk0MFowGjEYMBYG
A1UEAxMPZm9vLmV4YW1wbGUub3JnMIIBojANBgkqhkiG9w0BAQEFAAOCAY8AMIIB
igKCAYEAnYmTZJ1jnASdtO5H6swPOGjsBN1ateGP8xVZ71T/+rFn2YvgA2fFEO99
CNGMAQL6r/mzFCNmHnNIATlyzIkPxh0BBPTKkDfR5vZyTyUeIorvsckc+nIFy0iR
yWCAl20CsVYbem76KJecfPEojCX/OEQn81HmPdT7KA5HdwFWnEUXo3PKXLK4eKti
gOzvND9wkQBEEnQmIaUKzqDyQPnGtuif1oUWz0JH2pFXIW1pYy8ir9DRPejHBdZw
kxF6P2t8Tz7SX6u80NmI9fgYD1jjIqdiTCcd5de7263ZShxqJqaX1tIzPg/lQKo7
TMuQqhP3XYtpxHI4ffrdwGFc9EkTRBzfa2e6m7urB1PcRur9FPmw7gCU0b9rR5yU
n2eKe7H1KwTakmdWtORbIajqSFVkaBNi8r5L8Eyixr8eRsvLbo9Q0MF0f2F2bsPg
E+StJlm64bpErI11Q7/a47t8OlOyKvft+iibZL9W22D60V69YF1fb2/6jCc9N57J
hXMQmonzAgMBAAGjgfUwgfIwCQYDVR0TBAIwADARBglghkgBhvhCAQEEBAMCBsAw
DgYDVR0PAQH/BAQDAgXgMCwGCWCGSAGG+EIBDQQfFh1PcGVuU1NMIEdlbmVyYXRl
ZCBDZXJ0aWZpY2F0ZTAdBgNVHQ4EFgQUdYRp3UlrY+7SbMs73NNV2RArp4AwPQYD
VR0jBDYwNIAU9vdb9cMUMWR3PEASE1SvjXomc0ChGaQXMBUxEzARBgNVBAMTCmlu
dGVyMUEtY2GCAQEwNgYDVR0RBC8wLYIPZm9vLmV4YW1wbGUub3JnhhpodHRwczov
L2Zvby5leGFtcGxlLm9yZy9zcDANBgkqhkiG9w0BAQsFAAOCAYEAJOn8aWmAQ09r
g+RS09sl2IIp7x292JRpORw7RRjp5UdhNVco1z2isOYizxB3gnCCe7ajaag3uDS8
4n4vm7kzZmHGYct8ujrMiOQQy9BNjMcm3lJsQU9XjQPormjyzoXp4Oryir6zItp6
s0j8qb7pqXj1jWnRtp1fLD29n8RmMAS4hBZP/C4uEIsLESOGdvvQ18uLCthAjL32
M+W92bpmuJ3z0HwhPeiHt2WKakgHbJRWrsHsoF2LNxn4a0adepreSnYlMDrDOAll
HjNjw+jjC/C4IAbV0S4EhZWYbHnr6gSiIZQyyrE0mxzVVPOsUhxOUQFiiONtSoqA
fIgmB4sshD5RMpwdDtcbd3RdOLQkQdDcioI6wQkLRrXc4giqan1jFwVlql4uX54l
E5RUW9c5py9PGwHTI2K8zSdyz15LvpMg6EnkzHVg1HISmJU74A50HUOW52Jptr3P
YLSj10UgRpshTdnKnjmQTvqjsZtfzK6kmK7ehHmV+k/aGHA1XzxE
-----END CERTIFICATE-----
