Certificate:
    Data:
        Version: 3 (0x2)
        Serial Number: 2 (0x2)
    Signature Algorithm: sha256WithRSAEncryption
        Issuer: CN=inter1A1-ca
        Validity
            Not Before: Sep 16 01:49:18 2022 GMT
            Not After : Sep 16 01:49:28 2022 GMT
        Subject: CN=foo.example.org
        Subject Public Key Info:
            Public Key Algorithm: rsaEncryption
                Public-Key: (3072 bit)
                Modulus:
                    00:af:7d:72:66:5d:c0:b2:a1:73:6c:2f:be:47:a6:
                    88:98:65:9e:df:6c:73:41:23:55:a4:2c:21:e8:c8:
                    f3:dd:87:66:58:ab:f4:16:d0:82:ad:1c:58:ad:de:
                    5c:e2:ef:50:ef:04:00:90:d6:7b:e3:4b:f5:d3:d6:
                    03:5a:f3:eb:b2:64:e3:aa:78:5f:d2:bb:32:c6:6a:
                    b0:97:cc:fc:64:32:6f:d5:b5:48:81:77:7f:bb:d0:
                    76:c1:bc:31:9d:90:be:6a:7d:28:94:ba:d9:e9:e8:
                    86:a1:bc:ed:2b:6b:95:dc:7b:13:7e:6e:35:54:f2:
                    14:47:85:cc:35:c3:bf:8d:e8:1b:c8:f1:24:08:6f:
                    09:a8:f6:05:7d:c2:43:71:d6:25:c9:c6:58:80:15:
                    95:a2:70:bc:cb:d3:5a:7c:6d:df:88:38:3d:e0:c2:
                    cd:0a:a1:79:70:d4:9f:64:b7:41:98:f1:01:0d:01:
                    7c:5f:ce:8c:aa:cb:e8:73:ae:6b:73:13:d8:71:5a:
                    bc:73:ca:8d:22:3e:2d:b4:8b:b1:44:30:4c:ac:6a:
                    1a:0a:fa:9c:75:13:a2:bf:4f:59:e4:91:09:cb:cd:
                    52:d1:c9:60:78:06:88:65:a4:ce:43:2e:e8:8b:3b:
                    1b:63:7e:e4:9b:e0:3b:ec:56:df:bb:bc:f1:18:e4:
                    20:e9:68:55:2e:38:95:06:00:3c:1c:0d:6d:8d:47:
                    b0:ce:41:e9:78:36:f1:2e:92:08:08:d5:ae:95:35:
                    75:a4:44:53:0b:86:20:84:2f:60:a4:20:b1:6c:e5:
                    49:d2:49:ea:ad:53:b3:c0:31:e7:c3:a3:88:11:56:
                    59:91:13:0a:68:f5:5c:cd:1b:6b:39:2e:98:e5:f2:
                    0e:7c:e5:64:c7:a1:33:fa:62:4e:be:3d:49:13:6b:
                    92:93:a0:48:f6:42:49:cf:51:04:4f:5e:27:7a:08:
                    b1:24:5b:76:af:6d:23:b0:b3:82:58:3a:57:c1:39:
                    51:a7:8d:4a:bc:41:c1:c8:b0:b7
                Exponent: 65537 (0x10001)
        X509v3 extensions:
            X509v3 Basic Constraints: 
                CA:FALSE
            Netscape Cert Type: 
                SSL Client, SSL Server
            X509v3 Key Usage: critical
                Digital Signature, Non Repudiation, Key Encipherment
            Netscape Comment: 
                OpenSSL Generated Certificate
            X509v3 Subject Key Identifier: 
                2F:64:BE:53:94:51:B4:81:FF:B9:0C:62:CA:3C:64:A6:5C:93:F2:F9
            X509v3 Authority Key Identifier: 
                keyid:F6:F7:5B:F5:C3:14:31:64:77:3C:40:12:13:54:AF:8D:7A:26:73:40
                DirName:/CN=inter1A-ca
                serial:01

            X509v3 Subject Alternative Name: 
                DNS:foo.example.org, URI:https://foo.example.org/sp
    Signature Algorithm: sha256WithRSAEncryption
         59:32:38:3b:8f:76:e8:4a:99:fd:e2:b9:dc:76:10:42:16:1f:
         7b:f4:69:be:9f:bb:f8:3d:14:f1:7e:08:3a:0f:6e:c8:69:29:
         34:c0:38:3b:11:34:88:66:f2:72:ce:35:dc:44:4c:fe:97:f4:
         96:7d:3c:a9:0e:e6:ee:02:f2:94:95:2b:78:fa:18:52:25:1d:
         31:0f:a7:5e:ca:51:21:e9:e4:1b:85:45:9c:59:89:b7:c1:16:
         35:56:86:79:bf:d2:75:b5:1a:f3:52:23:93:6c:c6:ee:39:66:
         58:46:e7:31:1b:a7:3d:5e:2d:39:fd:ee:11:63:8a:8a:cd:7c:
         18:7b:df:d0:74:87:9f:4f:f1:18:14:45:55:89:f3:ad:80:d8:
         4e:8f:6a:05:2d:bd:e1:a0:33:39:c3:71:e3:cf:80:99:1a:eb:
         26:47:de:b4:c4:26:5e:81:d4:80:fd:0f:68:c2:43:6a:47:21:
         f3:1b:6a:20:0c:98:16:8c:20:d4:45:6a:c3:5d:aa:0b:4e:51:
         55:54:e2:34:d0:a1:15:01:f4:21:3b:47:24:05:e2:29:72:9a:
         36:27:18:02:8f:bf:ad:b6:74:d7:86:f3:65:59:e8:e5:2b:02:
         fb:a5:f5:3f:97:5d:bf:df:ca:36:d6:84:37:2c:9e:d8:8a:4d:
         52:8a:63:31:d1:32:d9:42:96:d4:60:cb:5a:05:94:4c:29:05:
         f9:25:69:0e:7a:03:4f:06:31:37:f4:1e:f1:c1:43:53:1b:3d:
         37:28:3a:a9:cd:55:8d:61:db:a3:4e:b0:95:be:51:c3:02:1b:
         c1:05:16:a0:81:8c:bf:0a:16:8f:e7:b6:65:e6:b6:83:6a:49:
         50:1d:8c:6c:62:0e:13:aa:22:2a:39:e1:f8:cc:b1:07:a4:be:
         f1:e6:9e:c7:34:b9:01:e3:fb:2c:5d:74:37:20:80:5a:21:cc:
         7a:ec:a8:ba:fc:7a:a7:08:78:d5:11:d1:5a:5e:e7:e6:04:7b:
         0b:30:b5:a7:1a:4b
-----BEGIN CERTIFICATE-----
MIIEoTCCAwmgAwIBAgIBAjANBgkqhkiG9w0BAQsFADAWMRQwEgYDVQQDEwtpbnRl
cjFBMS1jYTAeFw0yMjA5MTYwMTQ5MThaFw0yMjA5MTYwMTQ5MjhaMBoxGDAWBgNV
BAMTD2Zvby5leGFtcGxlLm9yZzCCAaIwDQYJKoZIhvcNAQEBBQADggGPADCCAYoC
ggGBAK99cmZdwLKhc2wvvkemiJhlnt9sc0EjVaQsIejI892HZlir9BbQgq0cWK3e
XOLvUO8EAJDWe+NL9dPWA1rz67Jk46p4X9K7MsZqsJfM/GQyb9W1SIF3f7vQdsG8
MZ2Qvmp9KJS62enohqG87Strldx7E35uNVTyFEeFzDXDv43oG8jxJAhvCaj2BX3C
Q3HWJcnGWIAVlaJwvMvTWnxt34g4PeDCzQqheXDUn2S3QZjxAQ0BfF/OjKrL6HOu
a3MT2HFavHPKjSI+LbSLsUQwTKxqGgr6nHUTor9PWeSRCcvNUtHJYHgGiGWkzkMu
6Is7G2N+5JvgO+xW37u88RjkIOloVS44lQYAPBwNbY1HsM5B6Xg28S6SCAjVrpU1
daREUwuGIIQvYKQgsWzlSdJJ6q1Ts8Ax58OjiBFWWZETCmj1XM0bazkumOXyDnzl
ZMehM/piTr49SRNrkpOgSPZCSc9RBE9eJ3oIsSRbdq9tI7Czglg6V8E5UaeNSrxB
wciwtwIDAQABo4H1MIHyMAkGA1UdEwQCMAAwEQYJYIZIAYb4QgEBBAQDAgbAMA4G
A1UdDwEB/wQEAwIF4DAsBglghkgBhvhCAQ0EHxYdT3BlblNTTCBHZW5lcmF0ZWQg
Q2VydGlmaWNhdGUwHQYDVR0OBBYEFC9kvlOUUbSB/7kMYso8ZKZck/L5MD0GA1Ud
IwQ2MDSAFPb3W/XDFDFkdzxAEhNUr416JnNAoRmkFzAVMRMwEQYDVQQDEwppbnRl
cjFBLWNhggEBMDYGA1UdEQQvMC2CD2Zvby5leGFtcGxlLm9yZ4YaaHR0cHM6Ly9m
b28uZXhhbXBsZS5vcmcvc3AwDQYJKoZIhvcNAQELBQADggGBAFkyODuPduhKmf3i
udx2EEIWH3v0ab6fu/g9FPF+CDoPbshpKTTAODsRNIhm8nLONdxETP6X9JZ9PKkO
5u4C8pSVK3j6GFIlHTEPp17KUSHp5BuFRZxZibfBFjVWhnm/0nW1GvNSI5Nsxu45
ZlhG5zEbpz1eLTn97hFjiorNfBh739B0h59P8RgURVWJ862A2E6PagUtveGgMznD
cePPgJka6yZH3rTEJl6B1ID9D2jCQ2pHIfMbaiAMmBaMINRFasNdqgtOUVVU4jTQ
oRUB9CE7RyQF4ilymjYnGAKPv622dNeG82VZ6OUrAvul9T+XXb/fyjbWhDcsntiK
TVKKYzHRMtlCltRgy1oFlEwpBfklaQ56A08GMTf0HvHBQ1MbPTcoOqnNVY1h26NO
sJW+UcMCG8EFFqCBjL8KFo/ntmXmtoNqSVAdjGxiDhOqIio54fjMsQekvvHmnsc0
uQHj+yxddDcggFohzHrsqLr8eqcIeNUR0Vpe5+YEewswtacaSw==
-----END CERTIFICATE-----
