Certificate:
    Data:
        Version: 3 (0x2)
        Serial Number: 1 (0x1)
    Signature Algorithm: sha256WithRSAEncryption
        Issuer: CN=root1-ca
        Validity
            Not Before: Sep 16 01:49:18 2022 GMT
            Not After : Sep  8 01:49:18 2052 GMT
        Subject: CN=inter1A-ca
        Subject Public Key Info:
            Public Key Algorithm: rsaEncryption
                Public-Key: (3072 bit)
                Modulus:
                    00:c0:74:b2:21:5d:30:85:78:fb:8c:ae:ce:16:66:
                    39:e7:1e:d6:83:29:fe:3d:35:f5:fd:00:3e:aa:7d:
                    a5:ad:2f:64:f0:f1:47:bd:a8:6c:50:b7:10:e7:b3:
                    f9:8d:f0:a8:6e:5d:a8:89:90:5e:1c:29:49:70:51:
                    43:f3:de:31:4f:75:3a:e4:e6:08:69:05:ce:d0:85:
                    06:9f:25:79:b7:3a:0a:ac:f7:96:87:e0:46:9c:25:
                    90:b6:33:37:3c:49:f4:40:6b:bb:58:54:8e:b1:b6:
                    f6:18:38:ca:b1:34:1a:93:21:e1:7b:3c:1e:e7:5f:
                    9f:69:cd:75:1a:a5:4a:6d:57:67:f2:92:ab:e5:06:
                    1b:18:de:39:52:89:45:58:7c:f1:6e:d0:d1:e8:38:
                    6d:f3:cf:8a:03:8d:31:1a:62:fe:82:a8:33:7f:01:
                    db:22:60:62:40:1a:3a:88:30:6a:10:33:e6:f0:d4:
                    85:c6:1e:7d:0b:1f:a8:cd:ae:7e:45:d0:b2:6f:c5:
                    aa:4e:55:69:2e:b7:b0:2d:70:c9:60:87:9e:82:74:
                    52:ac:4b:4f:62:2a:6e:e3:24:4a:80:2e:aa:8a:ce:
                    28:8d:fa:5e:17:db:c9:dc:a5:5f:79:93:62:85:d8:
                    26:51:e9:7f:fe:59:b5:1e:6a:22:99:68:fc:59:24:
                    ae:66:5f:81:13:b7:d8:fb:e4:e6:e2:b9:a4:fa:22:
                    ac:06:d2:d4:e6:59:80:26:95:bd:8c:a4:27:4a:39:
                    c3:5d:ab:9a:5c:91:f6:65:ba:7d:d9:80:c9:3f:94:
                    86:4e:8b:e4:ea:3c:ef:87:80:31:b0:a2:65:57:a4:
                    e2:4d:ba:74:f3:3a:f5:45:b3:1d:df:3e:38:6b:b6:
                    4c:2a:4c:63:15:6f:25:74:85:7f:74:8e:5a:a7:6f:
                    c4:c3:53:89:cd:bc:c6:c8:79:68:99:fd:33:dd:36:
                    a9:e9:48:9d:bf:1c:0b:25:c6:80:72:fc:16:20:e7:
                    7d:ba:b0:80:cd:db:f1:e9:b3:77
                Exponent: 65537 (0x10001)
        X509v3 extensions:
            X509v3 Basic Constraints: critical
                CA:TRUE
            Netscape Cert Type: 
                SSL CA, S/MIME CA, Object Signing CA
            X509v3 Key Usage: critical
                Digital Signature, Certificate Sign, CRL Sign
            X509v3 Subject Key Identifier: 
                D7:04:6D:FE:DC:04:15:81:05:62:64:08:F6:E4:E4:66:7B:5F:D3:17
            X509v3 Authority Key Identifier: 
                keyid:26:1C:68:7A:E2:B2:5A:B7:2C:F1:8F:8F:29:7C:77:54:61:89:04:68
                DirName:/CN=root1-ca
                serial:E7:83:BC:F1:18:AC:C8:B1

    Signature Algorithm: sha256WithRSAEncryption
         2b:02:aa:61:98:87:21:7a:0e:55:8e:79:4b:a6:b0:e9:68:cd:
         a0:b5:8f:c4:f9:12:52:c2:65:b0:ca:00:95:ed:4b:ba:32:ba:
         74:46:3a:0e:1b:f0:dd:e9:b3:b5:12:6d:65:ba:08:ef:6d:4f:
         44:8c:c4:2e:17:da:10:5a:29:e4:bf:63:1f:10:a1:4d:ca:05:
         c9:86:44:be:48:e8:f3:46:bd:8b:3a:58:8b:0c:86:f5:64:5d:
         b5:49:21:98:59:34:6f:b2:ba:44:3f:a3:06:02:21:19:2a:e1:
         2e:04:12:c5:ff:3a:e3:54:91:2c:56:5d:23:1f:ef:07:62:27:
         c7:b6:4c:85:84:8e:6a:8d:21:78:ff:cf:7e:13:83:8e:7c:58:
         07:aa:5a:80:77:6b:89:f9:32:2d:c0:07:6f:0e:c3:26:c9:47:
         c2:6c:97:19:e7:8c:0a:3f:d3:cd:97:28:a2:ad:f2:a2:c0:cb:
         2e:42:b1:4a:6d:2d:08:66:d5:82:73:71:fd:5f:84:1a:1f:b0:
         4a:16:b1:65:1e:98:0f:e8:df:a0:ba:85:d3:a9:2b:40:b3:3d:
         b4:3a:e2:46:00:c5:73:a7:90:2b:91:fd:0e:35:21:27:be:f1:
         d6:f0:88:e4:6d:a9:b0:8c:97:91:5c:52:ba:bc:c2:19:a6:43:
         f6:92:52:2e:36:fe:f6:66:21:3c:66:8d:30:5e:9b:12:4f:92:
         eb:56:13:d9:f0:db:51:85:e9:3a:80:8a:e4:ec:0c:08:51:ed:
         b5:0f:64:32:59:cc:db:14:ba:f0:8e:4b:34:cb:4c:28:ae:73:
         fa:fb:43:27:d2:19:2b:a4:16:ef:4c:18:b2:e8:c0:d3:61:34:
         91:e0:79:d4:c1:40:6c:5a:79:0f:3d:ea:f3:e7:92:1d:f8:7e:
         4f:32:40:7f:05:2f:67:f4:da:fc:3e:71:1e:ea:7d:16:b4:3b:
         87:41:4d:e5:9a:7e:50:67:58:00:0a:e3:fb:b8:05:9c:f3:65:
         e7:55:fa:3f:df:ab
-----BEGIN CERTIFICATE-----
MIIEQTCCAqmgAwIBAgIBATANBgkqhkiG9w0BAQsFADATMREwDwYDVQQDEwhyb290
MS1jYTAgFw0yMjA5MTYwMTQ5MThaGA8yMDUyMDkwODAxNDkxOFowFTETMBEGA1UE
AxMKaW50ZXIxQS1jYTCCAaIwDQYJKoZIhvcNAQEBBQADggGPADCCAYoCggGBAMB0
siFdMIV4+4yuzhZmOece1oMp/j019f0APqp9pa0vZPDxR72obFC3EOez+Y3wqG5d
qImQXhwpSXBRQ/PeMU91OuTmCGkFztCFBp8lebc6Cqz3lofgRpwlkLYzNzxJ9EBr
u1hUjrG29hg4yrE0GpMh4Xs8Hudfn2nNdRqlSm1XZ/KSq+UGGxjeOVKJRVh88W7Q
0eg4bfPPigONMRpi/oKoM38B2yJgYkAaOogwahAz5vDUhcYefQsfqM2ufkXQsm/F
qk5VaS63sC1wyWCHnoJ0UqxLT2IqbuMkSoAuqorOKI36XhfbydylX3mTYoXYJlHp
f/5ZtR5qIplo/FkkrmZfgRO32Pvk5uK5pPoirAbS1OZZgCaVvYykJ0o5w12rmlyR
9mW6fdmAyT+Uhk6L5Oo874eAMbCiZVek4k26dPM69UWzHd8+OGu2TCpMYxVvJXSF
f3SOWqdvxMNTic28xsh5aJn9M902qelInb8cCyXGgHL8FiDnfbqwgM3b8emzdwID
AQABo4GbMIGYMA8GA1UdEwEB/wQFMAMBAf8wEQYJYIZIAYb4QgEBBAQDAgAHMA4G
A1UdDwEB/wQEAwIBhjAdBgNVHQ4EFgQU1wRt/twEFYEFYmQI9uTkZntf0xcwQwYD
VR0jBDwwOoAUJhxoeuKyWrcs8Y+PKXx3VGGJBGihF6QVMBMxETAPBgNVBAMTCHJv
b3QxLWNhggkA54O88RisyLEwDQYJKoZIhvcNAQELBQADggGBACsCqmGYhyF6DlWO
eUumsOlozaC1j8T5ElLCZbDKAJXtS7oyunRGOg4b8N3ps7USbWW6CO9tT0SMxC4X
2hBaKeS/Yx8QoU3KBcmGRL5I6PNGvYs6WIsMhvVkXbVJIZhZNG+yukQ/owYCIRkq
4S4EEsX/OuNUkSxWXSMf7wdiJ8e2TIWEjmqNIXj/z34Tg458WAeqWoB3a4n5Mi3A
B28OwybJR8JslxnnjAo/082XKKKt8qLAyy5CsUptLQhm1YJzcf1fhBofsEoWsWUe
mA/o36C6hdOpK0CzPbQ64kYAxXOnkCuR/Q41ISe+8dbwiORtqbCMl5FcUrq8whmm
Q/aSUi42/vZmITxmjTBemxJPkutWE9nw21GF6TqAiuTsDAhR7bUPZDJZzNsUuvCO
SzTLTCiuc/r7QyfSGSukFu9MGLLowNNhNJHgedTBQGxaeQ896vPnkh34fk8yQH8F
L2f02vw+cR7qfRa0O4dBTeWaflBnWAAK4/u4BZzzZedV+j/fqw==
-----END CERTIFICATE-----
