Certificate:
    Data:
        Version: 3 (0x2)
        Serial Number: 1 (0x1)
    Signature Algorithm: sha256WithRSAEncryption
        Issuer: CN=inter1A-ca
        Validity
            Not Before: Sep 16 01:49:22 2022 GMT
            Not After : Sep  8 01:49:22 2052 GMT
        Subject: CN=inter1A1-ca
        Subject Public Key Info:
            Public Key Algorithm: rsaEncryption
                Public-Key: (3072 bit)
                Modulus:
                    00:a5:d5:60:2b:83:05:9c:84:5f:96:7b:1d:3e:62:
                    75:a6:5d:0c:62:15:58:47:8e:95:99:f9:43:69:ba:
                    75:2c:13:fc:28:dd:89:83:cb:ec:fb:ed:57:15:b3:
                    80:5f:d3:46:df:3a:12:44:f6:92:e7:be:36:e1:c1:
                    33:b1:20:b0:90:50:8d:bd:06:d2:08:99:9f:4e:37:
                    71:70:a7:77:a0:ce:64:80:f6:09:fb:37:2f:79:44:
                    fb:c2:68:05:fb:4f:cc:94:33:8f:af:5b:e6:5a:da:
                    58:72:19:92:68:32:5a:74:40:00:cc:8b:2d:fe:9d:
                    76:58:01:96:f9:e0:08:3a:96:38:62:20:3a:f9:fb:
                    aa:47:9a:b7:b7:c0:7f:ba:f7:47:ec:c0:a1:c0:42:
                    e5:34:5d:ef:b0:50:8d:e3:9a:0f:9f:0c:79:b4:d6:
                    a5:84:43:97:20:d1:0c:02:fc:f0:32:0c:90:6d:46:
                    69:47:b8:21:cb:db:ee:a0:6c:80:4d:4d:41:24:c2:
                    59:53:49:d4:b9:30:ea:46:8e:12:2c:36:65:41:e6:
                    8a:61:1c:17:d8:db:17:7d:de:f3:b3:b0:0c:e3:3d:
                    39:7c:7d:cd:e9:93:e2:2c:85:6a:8a:4f:43:2e:c7:
                    34:85:ef:3e:a4:3e:61:9d:c5:2f:07:fc:56:32:d7:
                    2d:d3:7a:99:59:61:4c:3e:6a:ee:32:3f:63:06:b7:
                    89:70:cd:b8:7f:0b:60:1c:a7:ee:44:7c:bd:d4:85:
                    0a:d0:c8:79:f7:3a:3c:9e:7c:67:03:fb:0e:6a:b8:
                    84:29:c7:cf:fa:1e:5e:4d:c3:b5:e0:6b:d8:0e:d2:
                    9e:c9:fb:69:13:eb:ee:7c:fa:98:58:0d:ad:9a:b7:
                    ab:4f:68:b3:20:9f:52:ee:9d:d4:f7:bc:25:d4:a7:
                    2b:e4:84:dd:d3:ab:e5:c9:dd:cd:9b:20:f8:cb:93:
                    30:d2:c3:0f:4a:a9:25:6e:dd:b8:0d:ff:be:04:04:
                    7f:55:d1:3e:07:69:b3:77:8b:45
                Exponent: 65537 (0x10001)
        X509v3 extensions:
            X509v3 Basic Constraints: critical
                CA:TRUE
            Netscape Cert Type: 
                SSL CA, S/MIME CA, Object Signing CA
            X509v3 Key Usage: critical
                Digital Signature, Certificate Sign, CRL Sign
            X509v3 Subject Key Identifier: 
                F6:F7:5B:F5:C3:14:31:64:77:3C:40:12:13:54:AF:8D:7A:26:73:40
            X509v3 Authority Key Identifier: 
                keyid:D7:04:6D:FE:DC:04:15:81:05:62:64:08:F6:E4:E4:66:7B:5F:D3:17
                DirName:/CN=root1-ca
                serial:01

    Signature Algorithm: sha256WithRSAEncryption
         0d:6f:ac:f3:30:65:de:a9:fb:90:7d:eb:5b:5c:7d:22:1f:e7:
         78:96:94:72:7f:de:2d:df:c0:1a:c9:30:62:55:a6:27:50:dd:
         a2:75:58:c4:b2:4f:5e:db:e2:d2:be:56:aa:0f:50:c0:5b:93:
         c7:ce:5b:85:e9:01:ee:4a:b9:06:ba:72:b0:94:ba:2e:db:16:
         ad:f4:e8:c9:b5:4e:f3:f9:2e:45:7f:d9:cf:3b:d1:5e:f9:47:
         fd:44:7f:11:34:d1:44:d3:2f:c1:53:94:64:57:0f:3a:c0:af:
         09:66:2f:b4:21:93:ac:15:6b:a6:56:00:c1:aa:1b:2e:2d:fc:
         27:b2:07:6e:12:e5:0b:07:32:c5:0f:0e:17:f0:7b:b0:bf:a9:
         6c:50:3c:00:b5:c6:77:b1:7f:a2:12:bb:c3:9c:27:c5:3e:ee:
         84:b6:e3:05:1b:1f:35:67:2d:72:a0:5b:5e:c6:b3:7c:4d:96:
         a7:ac:f0:b2:95:b3:d1:90:02:87:66:ef:69:bd:08:f5:9b:61:
         69:1f:ad:44:ee:92:0c:c4:2a:d4:e9:7f:3a:96:e6:57:f7:5b:
         e7:d3:da:40:8e:a6:b6:0e:61:75:73:2c:8e:93:62:10:10:b0:
         4a:af:1f:24:51:b6:62:6b:7c:f1:a6:64:df:62:3e:8a:c4:6f:
         bc:82:e5:20:1c:68:f9:42:93:45:bc:00:80:23:20:d5:2c:07:
         b0:23:0e:89:43:23:5f:24:15:9b:d1:4f:8d:b5:8d:87:e8:7d:
         f9:b3:52:2c:9d:d2:26:65:86:0a:63:85:b1:9a:84:68:14:6c:
         37:0d:4a:48:2b:85:26:df:a3:47:be:48:fe:f7:59:7b:f4:cd:
         15:07:fb:80:1e:14:95:15:73:5f:97:90:9f:1c:02:de:0a:f6:
         62:cf:17:88:a2:8c:a9:5e:f4:1f:c9:5b:3a:97:58:91:7e:d2:
         b7:87:33:b6:37:79:3f:ba:f9:9f:4f:99:15:d4:3a:d2:96:85:
         23:47:16:7b:14:8f
-----BEGIN CERTIFICATE-----
MIIEPDCCAqSgAwIBAgIBATANBgkqhkiG9w0BAQsFADAVMRMwEQYDVQQDEwppbnRl
cjFBLWNhMCAXDTIyMDkxNjAxNDkyMloYDzIwNTIwOTA4MDE0OTIyWjAWMRQwEgYD
VQQDEwtpbnRlcjFBMS1jYTCCAaIwDQYJKoZIhvcNAQEBBQADggGPADCCAYoCggGB
AKXVYCuDBZyEX5Z7HT5idaZdDGIVWEeOlZn5Q2m6dSwT/CjdiYPL7PvtVxWzgF/T
Rt86EkT2kue+NuHBM7EgsJBQjb0G0giZn043cXCnd6DOZID2Cfs3L3lE+8JoBftP
zJQzj69b5lraWHIZkmgyWnRAAMyLLf6ddlgBlvngCDqWOGIgOvn7qkeat7fAf7r3
R+zAocBC5TRd77BQjeOaD58MebTWpYRDlyDRDAL88DIMkG1GaUe4Icvb7qBsgE1N
QSTCWVNJ1Lkw6kaOEiw2ZUHmimEcF9jbF33e87OwDOM9OXx9zemT4iyFaopPQy7H
NIXvPqQ+YZ3FLwf8VjLXLdN6mVlhTD5q7jI/Ywa3iXDNuH8LYByn7kR8vdSFCtDI
efc6PJ58ZwP7Dmq4hCnHz/oeXk3DteBr2A7Snsn7aRPr7nz6mFgNrZq3q09osyCf
Uu6d1Pe8JdSnK+SE3dOr5cndzZsg+MuTMNLDD0qpJW7duA3/vgQEf1XRPgdps3eL
RQIDAQABo4GTMIGQMA8GA1UdEwEB/wQFMAMBAf8wEQYJYIZIAYb4QgEBBAQDAgAH
MA4GA1UdDwEB/wQEAwIBhjAdBgNVHQ4EFgQU9vdb9cMUMWR3PEASE1SvjXomc0Aw
OwYDVR0jBDQwMoAU1wRt/twEFYEFYmQI9uTkZntf0xehF6QVMBMxETAPBgNVBAMT
CHJvb3QxLWNhggEBMA0GCSqGSIb3DQEBCwUAA4IBgQANb6zzMGXeqfuQfetbXH0i
H+d4lpRyf94t38AayTBiVaYnUN2idVjEsk9e2+LSvlaqD1DAW5PHzluF6QHuSrkG
unKwlLou2xat9OjJtU7z+S5Ff9nPO9Fe+Uf9RH8RNNFE0y/BU5RkVw86wK8JZi+0
IZOsFWumVgDBqhsuLfwnsgduEuULBzLFDw4X8Huwv6lsUDwAtcZ3sX+iErvDnCfF
Pu6EtuMFGx81Zy1yoFtexrN8TZanrPCylbPRkAKHZu9pvQj1m2FpH61E7pIMxCrU
6X86luZX91vn09pAjqa2DmF1cyyOk2IQELBKrx8kUbZia3zxpmTfYj6KxG+8guUg
HGj5QpNFvACAIyDVLAewIw6JQyNfJBWb0U+NtY2H6H35s1IsndImZYYKY4WxmoRo
FGw3DUpIK4Um36NHvkj+91l79M0VB/uAHhSVFXNfl5CfHALeCvZizxeIooypXvQf
yVs6l1iRftK3hzO2N3k/uvmfT5kV1DrSloUjRxZ7FI8=
-----END CERTIFICATE-----
