Certificate:
    Data:
        Version: 3 (0x2)
        Serial Number: 1 (0x1)
    Signature Algorithm: sha256WithRSAEncryption
        Issuer: CN=root2-ca
        Validity
            Not Before: Sep 16 01:49:26 2022 GMT
            Not After : Sep  8 01:49:26 2052 GMT
        Subject: CN=inter2A-ca
        Subject Public Key Info:
            Public Key Algorithm: rsaEncryption
                Public-Key: (3072 bit)
                Modulus:
                    00:c1:16:86:9a:68:e2:22:11:b3:af:ac:19:4b:da:
                    76:33:97:95:0b:02:a8:34:87:d6:61:dc:d7:0c:e3:
                    70:4a:3d:3b:1d:8f:b3:b9:7b:16:0f:ea:b9:c4:0e:
                    6b:35:4c:4b:69:0f:2b:07:11:1a:0c:7c:20:c7:31:
                    65:c1:a5:ae:8b:76:ff:cd:a6:61:43:40:fe:36:d7:
                    da:01:75:7c:68:cc:4a:ef:d5:ef:33:c2:c7:88:d8:
                    96:52:19:55:13:88:84:f8:5e:ba:3b:c2:25:9b:e9:
                    a9:a0:28:e6:38:f8:29:26:6d:07:da:85:03:26:10:
                    bb:3a:70:ae:35:e6:9c:b7:e0:1c:16:d6:1c:11:b1:
                    70:a6:c4:61:52:7d:5d:ce:3b:69:a9:58:0b:e8:48:
                    60:4f:9b:7c:6b:2b:d1:4a:cb:65:28:cb:24:8a:1d:
                    0c:00:64:51:7c:82:0e:e1:87:95:45:8a:a4:e4:92:
                    9d:98:a0:8a:70:a4:6a:ba:d6:2b:97:04:38:16:22:
                    22:d1:6f:ba:4f:31:b3:78:56:1f:5d:71:f2:0f:1b:
                    50:84:a6:db:93:13:1d:18:98:5c:f6:ef:0a:d7:95:
                    2c:dc:74:bd:9a:3e:98:78:11:0c:c1:32:31:db:17:
                    20:1e:35:bb:3e:98:07:c6:ff:ac:43:05:b8:d1:64:
                    bb:64:24:1e:28:7c:e6:bc:93:5f:d7:92:be:ea:50:
                    f7:f8:48:aa:4c:a4:f4:44:bd:b4:54:39:25:cb:8f:
                    62:3c:5e:9c:ef:2b:09:a9:35:cd:5a:23:e7:c6:6e:
                    d5:bd:97:b4:f3:62:54:63:bd:b1:21:c4:91:57:0c:
                    c8:f9:42:49:fa:53:d3:4a:a4:b0:4a:13:d3:2f:8c:
                    b1:af:e5:3d:5e:99:18:6f:9c:e1:de:f0:3b:5e:63:
                    f8:1a:09:ce:a0:a2:c3:bb:9a:0d:72:45:bc:b7:e6:
                    7a:78:33:7b:2e:17:fa:dd:81:99:ac:48:b6:6b:93:
                    32:bf:75:be:3f:3a:f7:75:3f:21
                Exponent: 65537 (0x10001)
        X509v3 extensions:
            X509v3 Basic Constraints: critical
                CA:TRUE
            Netscape Cert Type: 
                SSL CA, S/MIME CA, Object Signing CA
            X509v3 Key Usage: critical
                Digital Signature, Certificate Sign, CRL Sign
            X509v3 Subject Key Identifier: 
                A3:AB:42:68:06:9A:CB:CE:14:95:A0:EF:40:8D:E5:99:8D:BD:C4:0B
            X509v3 Authority Key Identifier: 
                keyid:B5:1F:DF:73:0B:E0:FA:8E:81:F2:9F:9E:A5:62:D0:74:63:1F:CE:6E
                DirName:/CN=root2-ca
                serial:A2:EB:78:04:17:F8:8E:6A

    Signature Algorithm: sha256WithRSAEncryption
         6b:ad:97:2b:3e:d2:57:b8:26:e9:a5:97:b6:ee:ef:76:25:c7:
         32:3e:58:4b:b5:eb:68:45:e5:6f:95:4b:21:bd:ab:e3:b2:ff:
         56:91:24:e2:34:0c:a9:c4:16:e3:5b:07:e6:71:b0:2a:e6:51:
         43:b8:5a:55:59:b0:8d:d4:e6:e4:e1:a3:17:7e:b3:f8:bf:b5:
         62:05:d5:99:d3:c1:55:91:03:1d:30:a6:de:22:8e:9f:12:87:
         f4:c3:8a:0b:4b:3d:4b:5c:e2:55:3d:ea:a5:9f:25:55:0e:49:
         96:4e:94:0a:24:7c:09:fc:cc:5b:6f:bd:e9:0c:f2:e1:95:03:
         ce:76:5e:f0:47:7e:8e:16:5a:bf:22:9a:56:9d:4e:ce:f2:22:
         84:53:3e:b5:bc:ee:ce:00:9e:26:90:f0:37:8d:03:6d:33:0c:
         a1:a8:11:8b:84:43:73:6d:5f:ed:1e:e6:a8:a8:6d:a0:ee:c2:
         c1:cf:6c:46:1a:39:15:8f:37:f6:8b:2c:96:70:31:8d:c2:11:
         3e:7b:59:dd:93:79:3c:9c:fc:9f:e4:25:82:4a:9a:5b:10:5a:
         25:3d:7f:f6:ce:42:2a:ea:24:91:51:f0:26:c8:25:bd:8d:e0:
         f0:98:1a:a0:fd:34:66:3d:d2:64:17:82:4c:54:95:27:ab:8c:
         0a:a7:7b:6f:0d:e4:f2:35:d5:f3:37:ba:cf:58:48:01:f8:1b:
         33:98:2f:e7:89:cc:50:b8:7d:ff:4e:05:60:55:05:35:7f:18:
         89:a4:f4:bd:d2:13:6d:ae:a2:ff:66:cc:61:d6:c2:96:b6:5e:
         7c:08:f7:14:7b:77:c5:eb:ae:46:66:73:8e:81:10:a1:e3:07:
         2c:c2:dc:e5:fa:aa:9c:aa:bc:74:5a:80:a9:d1:4d:ac:0f:3e:
         66:2a:5d:01:6a:45:86:0b:16:a7:b7:31:8c:92:82:90:9a:f4:
         ff:57:bc:41:6f:ff:6d:fb:d1:dc:63:f8:3e:ed:7a:6b:fa:d2:
         af:19:a2:e9:56:aa
-----BEGIN CERTIFICATE-----
MIIEQTCCAqmgAwIBAgIBATANBgkqhkiG9w0BAQsFADATMREwDwYDVQQDEwhyb290
Mi1jYTAgFw0yMjA5MTYwMTQ5MjZaGA8yMDUyMDkwODAxNDkyNlowFTETMBEGA1UE
AxMKaW50ZXIyQS1jYTCCAaIwDQYJKoZIhvcNAQEBBQADggGPADCCAYoCggGBAMEW
hppo4iIRs6+sGUvadjOXlQsCqDSH1mHc1wzjcEo9Ox2Ps7l7Fg/qucQOazVMS2kP
KwcRGgx8IMcxZcGlrot2/82mYUNA/jbX2gF1fGjMSu/V7zPCx4jYllIZVROIhPhe
ujvCJZvpqaAo5jj4KSZtB9qFAyYQuzpwrjXmnLfgHBbWHBGxcKbEYVJ9Xc47aalY
C+hIYE+bfGsr0UrLZSjLJIodDABkUXyCDuGHlUWKpOSSnZiginCkarrWK5cEOBYi
ItFvuk8xs3hWH11x8g8bUISm25MTHRiYXPbvCteVLNx0vZo+mHgRDMEyMdsXIB41
uz6YB8b/rEMFuNFku2QkHih85ryTX9eSvupQ9/hIqkyk9ES9tFQ5JcuPYjxenO8r
Cak1zVoj58Zu1b2XtPNiVGO9sSHEkVcMyPlCSfpT00qksEoT0y+Msa/lPV6ZGG+c
4d7wO15j+BoJzqCiw7uaDXJFvLfmengzey4X+t2BmaxItmuTMr91vj8693U/IQID
AQABo4GbMIGYMA8GA1UdEwEB/wQFMAMBAf8wEQYJYIZIAYb4QgEBBAQDAgAHMA4G
A1UdDwEB/wQEAwIBhjAdBgNVHQ4EFgQUo6tCaAaay84UlaDvQI3lmY29xAswQwYD
VR0jBDwwOoAUtR/fcwvg+o6B8p+epWLQdGMfzm6hF6QVMBMxETAPBgNVBAMTCHJv
b3QyLWNhggkAout4BBf4jmowDQYJKoZIhvcNAQELBQADggGBAGutlys+0le4Juml
l7bu73YlxzI+WEu162hF5W+VSyG9q+Oy/1aRJOI0DKnEFuNbB+ZxsCrmUUO4WlVZ
sI3U5uThoxd+s/i/tWIF1ZnTwVWRAx0wpt4ijp8Sh/TDigtLPUtc4lU96qWfJVUO
SZZOlAokfAn8zFtvvekM8uGVA852XvBHfo4WWr8imladTs7yIoRTPrW87s4AniaQ
8DeNA20zDKGoEYuEQ3NtX+0e5qiobaDuwsHPbEYaORWPN/aLLJZwMY3CET57Wd2T
eTyc/J/kJYJKmlsQWiU9f/bOQirqJJFR8CbIJb2N4PCYGqD9NGY90mQXgkxUlSer
jAqne28N5PI11fM3us9YSAH4GzOYL+eJzFC4ff9OBWBVBTV/GImk9L3SE22uov9m
zGHWwpa2XnwI9xR7d8XrrkZmc46BEKHjByzC3OX6qpyqvHRagKnRTawPPmYqXQFq
RYYLFqe3MYySgpCa9P9XvEFv/2370dxj+D7temv60q8ZoulWqg==
-----END CERTIFICATE-----
