Certificate:
    Data:
        Version: 3 (0x2)
        Serial Number: 1 (0x1)
    Signature Algorithm: sha256WithRSAEncryption
        Issuer: CN=Snakeoil Metadata Issuing CA #1
        Validity
            Not Before: Sep 16 01:49:48 2022 GMT
            Not After : Sep  8 01:49:48 2052 GMT
        Subject: CN=Snakeoil Metadata Signer #1
        Subject Public Key Info:
            Public Key Algorithm: rsaEncryption
                Public-Key: (3072 bit)
                Modulus:
                    00:9c:26:fd:3c:2d:3c:1c:c5:4c:f0:29:23:ab:a8:
                    ac:be:32:de:00:06:1e:8d:82:12:cb:82:fe:16:35:
                    d1:0c:3c:e9:eb:e3:c1:51:04:67:96:83:98:3a:e2:
                    86:22:c5:96:00:3f:d6:bf:24:e7:58:42:82:b6:2e:
                    17:87:ec:82:b4:f9:46:ce:24:52:87:61:63:32:59:
                    37:43:03:8c:9c:f1:af:70:1d:27:fb:ec:40:e0:c3:
                    56:98:0c:a8:8b:6c:43:73:a7:47:e3:95:9e:1e:ab:
                    1b:b8:09:34:0c:f8:ed:04:60:a4:12:a9:fe:65:49:
                    6e:11:24:53:ce:a5:38:ef:4e:12:d1:ac:69:77:12:
                    1e:80:58:60:e5:d1:7a:b5:3a:40:be:39:86:ec:36:
                    70:a8:75:bd:c4:7f:43:87:7d:f2:fe:7e:59:89:9e:
                    44:e2:81:26:70:ca:f2:e9:87:07:a1:66:74:4d:69:
                    5d:03:cf:71:32:1a:84:f4:f5:9c:86:d4:fc:cb:aa:
                    93:27:d3:7f:13:cb:c2:82:8a:08:60:7e:51:d6:e5:
                    01:ea:e5:51:47:a8:55:ab:81:fa:0f:6e:fc:d2:79:
                    4d:f0:a0:69:b5:8a:dc:dd:88:be:8b:ad:ae:f2:55:
                    46:e9:93:11:aa:0c:de:e0:c2:6f:6b:b5:0a:73:f5:
                    19:ca:86:84:e0:d4:e7:d6:8b:f8:94:b5:7b:c6:36:
                    f4:3b:f1:db:ed:c7:34:3b:aa:59:cd:22:e5:b3:b5:
                    51:ce:9d:a9:a0:56:c8:5f:0c:f5:69:be:b4:5d:e0:
                    e2:19:43:94:70:9f:5b:6b:7c:a6:05:3d:db:83:68:
                    f5:8d:de:cc:01:d0:58:00:10:ee:7c:97:21:8a:d3:
                    e7:bb:61:ae:0c:7b:b4:5c:a9:8d:5f:43:80:53:00:
                    11:18:25:e6:c0:f6:0f:4e:61:a3:ce:0f:9a:31:4f:
                    a6:cc:25:75:41:25:ef:21:ae:2e:8b:4d:3b:3e:7e:
                    fa:34:c4:fb:7b:00:18:65:23:9b
                Exponent: 65537 (0x10001)
        X509v3 extensions:
            X509v3 Basic Constraints: 
                CA:FALSE
            Netscape Cert Type: 
                SSL Client, SSL Server
            X509v3 Key Usage: critical
                Digital Signature, Non Repudiation, Key Encipherment
            Netscape Comment: 
                OpenSSL Generated Certificate
            X509v3 Subject Key Identifier: 
                3C:41:AC:B9:05:30:9F:16:7A:36:1A:81:EC:43:09:F1:91:32:02:ED
            X509v3 Authority Key Identifier: 
                keyid:C1:58:93:51:9B:5D:75:37:04:2B:55:EA:73:B8:74:13:D8:DB:C1:AE
                DirName:/CN=Snakeoil Root CA
                serial:01

            X509v3 Certificate Policies: 
                Policy: 1.3.6.1.4.1.32473.2011.6.20

    Signature Algorithm: sha256WithRSAEncryption
         28:63:95:cd:67:d7:88:8e:95:1a:de:fe:fd:e0:ef:29:7d:43:
         b3:31:a9:4e:8b:15:d1:bf:d4:eb:20:16:4b:3a:02:a9:e1:7b:
         da:7b:5e:b0:33:84:94:11:c1:e2:5c:11:52:4b:fd:20:75:79:
         51:25:24:05:63:e5:bc:a0:e4:33:d5:50:ec:87:52:0c:67:2d:
         9c:e4:00:37:30:ca:ca:08:6d:08:1b:33:99:5c:ed:3c:be:7e:
         d7:a3:fb:f6:5a:33:00:ed:e8:ff:3b:20:3e:7f:03:bf:74:91:
         42:33:14:7f:ff:de:2f:fd:d8:65:29:af:7e:fc:82:4a:ec:52:
         e6:b3:79:a2:bd:a3:fc:d3:25:d4:a7:7e:20:fb:d1:2c:fd:7f:
         cf:51:fe:55:f2:f7:49:fe:49:03:ba:34:2f:96:89:12:72:be:
         7b:45:f9:a9:59:19:a5:c0:36:ff:a9:ae:19:a9:f2:9a:2c:71:
         25:73:9d:ef:07:41:25:3d:66:f4:e2:4f:44:53:41:fa:34:ce:
         7a:45:07:0e:ba:c3:b6:0b:51:65:4c:94:4a:93:e7:26:96:eb:
         31:5f:e0:8c:32:d8:66:71:21:e4:77:c5:a6:c5:49:b2:31:57:
         ce:b7:83:92:ba:67:30:64:fb:69:f9:dd:bc:b9:02:c7:6a:16:
         d6:85:a8:61:68:89:40:e0:41:9c:fd:dc:87:c2:be:a4:2d:e6:
         55:d7:e0:f1:1f:6a:e8:0b:67:db:a3:c3:e9:9a:cf:f9:6e:92:
         22:93:64:71:bb:65:ca:65:b5:53:52:8c:76:7e:36:e4:50:a7:
         71:9d:e2:57:49:aa:69:bc:ad:a9:70:63:25:a8:c2:86:b4:67:
         d2:74:1d:9d:df:bf:6a:a2:0a:a9:56:4d:24:b5:23:81:05:51:
         87:c8:7d:59:29:e3:03:ee:1a:9e:45:51:85:d7:30:a2:2e:d4:
         3c:75:f8:fd:c8:a6:7e:22:67:7c:78:92:90:00:ad:c8:09:2c:
         44:35:84:4e:5e:cb
-----BEGIN CERTIFICATE-----
MIIErDCCAxSgAwIBAgIBATANBgkqhkiG9w0BAQsFADAqMSgwJgYDVQQDDB9TbmFr
ZW9pbCBNZXRhZGF0YSBJc3N1aW5nIENBICMxMCAXDTIyMDkxNjAxNDk0OFoYDzIw
NTIwOTA4MDE0OTQ4WjAmMSQwIgYDVQQDDBtTbmFrZW9pbCBNZXRhZGF0YSBTaWdu
ZXIgIzEwggGiMA0GCSqGSIb3DQEBAQUAA4IBjwAwggGKAoIBgQCcJv08LTwcxUzw
KSOrqKy+Mt4ABh6NghLLgv4WNdEMPOnr48FRBGeWg5g64oYixZYAP9a/JOdYQoK2
LheH7IK0+UbOJFKHYWMyWTdDA4yc8a9wHSf77EDgw1aYDKiLbENzp0fjlZ4eqxu4
CTQM+O0EYKQSqf5lSW4RJFPOpTjvThLRrGl3Eh6AWGDl0Xq1OkC+OYbsNnCodb3E
f0OHffL+flmJnkTigSZwyvLphwehZnRNaV0Dz3EyGoT09ZyG1PzLqpMn038Ty8KC
ighgflHW5QHq5VFHqFWrgfoPbvzSeU3woGm1itzdiL6Lra7yVUbpkxGqDN7gwm9r
tQpz9RnKhoTg1OfWi/iUtXvGNvQ78dvtxzQ7qlnNIuWztVHOnamgVshfDPVpvrRd
4OIZQ5Rwn1trfKYFPduDaPWN3swB0FgAEO58lyGK0+e7Ya4Me7RcqY1fQ4BTABEY
JebA9g9OYaPOD5oxT6bMJXVBJe8hri6LTTs+fvo0xPt7ABhlI5sCAwEAAaOB3jCB
2zAJBgNVHRMEAjAAMBEGCWCGSAGG+EIBAQQEAwIGwDAOBgNVHQ8BAf8EBAMCBeAw
LAYJYIZIAYb4QgENBB8WHU9wZW5TU0wgR2VuZXJhdGVkIENlcnRpZmljYXRlMB0G
A1UdDgQWBBQ8Qay5BTCfFno2GoHsQwnxkTIC7TBDBgNVHSMEPDA6gBTBWJNRm111
NwQrVepzuHQT2NvBrqEfpB0wGzEZMBcGA1UEAxMQU25ha2VvaWwgUm9vdCBDQYIB
ATAZBgNVHSAEEjAQMA4GDCsGAQQBgf1Zj1sGFDANBgkqhkiG9w0BAQsFAAOCAYEA
KGOVzWfXiI6VGt7+/eDvKX1DszGpTosV0b/U6yAWSzoCqeF72ntesDOElBHB4lwR
Ukv9IHV5USUkBWPlvKDkM9VQ7IdSDGctnOQANzDKyghtCBszmVztPL5+16P79loz
AO3o/zsgPn8Dv3SRQjMUf//eL/3YZSmvfvyCSuxS5rN5or2j/NMl1Kd+IPvRLP1/
z1H+VfL3Sf5JA7o0L5aJEnK+e0X5qVkZpcA2/6muGanymixxJXOd7wdBJT1m9OJP
RFNB+jTOekUHDrrDtgtRZUyUSpPnJpbrMV/gjDLYZnEh5HfFpsVJsjFXzreDkrpn
MGT7afndvLkCx2oW1oWoYWiJQOBBnP3ch8K+pC3mVdfg8R9q6Atn26PD6ZrP+W6S
IpNkcbtlymW1U1KMdn425FCncZ3iV0mqabytqXBjJajChrRn0nQdnd+/aqIKqVZN
JLUjgQVRh8h9WSnjA+4ankVRhdcwoi7UPHX4/cimfiJnfHiSkACtyAksRDWETl7L
-----END CERTIFICATE-----
